target datalayout = "e-m:e-p270:32:32-p271:32:32-p272:64:64-i64:64-i128:128-f80:128-n8:16:32:64-S128"
target triple = "x86_64-pc-linux-gnu"

%struct.expert_field = type { i32, i32 }

@hf_mp4_full_box_ver = internal global i32 0, align 4
@hf_mp4_full_box_flags = internal global i32 0, align 4
@hf_mp4_mvhd_creat_time = internal global i32 0, align 4
@hf_mp4_mvhd_mod_time = internal global i32 0, align 4
@hf_mp4_mvhd_timescale = internal global i32 0, align 4
@hf_mp4_mvhd_duration = internal global i32 0, align 4
@hf_mp4_mvhd_rate = internal global i32 0, align 4
@hf_mp4_mvhd_vol = internal global i32 0, align 4
@hf_mp4_mvhd_next_tid = internal global i32 0, align 4
@ett_mp4_full_box_flags = internal global i32 0, align 4
@ei_mp4_mvhd_next_tid_unknown = internal global %struct.expert_field zeroinitializer, align 4
@mvhd_timescale = internal global i32 0, align 4
@.str.167 = private unnamed_addr constant [34 x i8] c"Timescale: %d units in one second\00", align 1
@.str.168 = private unnamed_addr constant [29 x i8] c"Duration: no timescale (%lu)\00", align 1
@.str.169 = private unnamed_addr constant [27 x i8] c"Duration: %f seconds (%lu)\00", align 1

; Function Attrs: inlinehint nounwind null_pointer_is_valid sspstrong uwtable
define internal double @make_fract(i32 noundef %0) #3 {
  %2 = alloca double, align 8
  %3 = alloca i32, align 4
  store i32 %0, ptr %3, align 4
  %4 = load i32, ptr %3, align 4
  %5 = icmp eq i32 %4, 0
  br i1 %5, label %6, label %7

6:                                                ; preds = %1
  store double 0.000000e+00, ptr %2, align 8
  br label %21

7:                                                ; preds = %1
  %8 = load i32, ptr %3, align 4
  %9 = uitofp i32 %8 to double
  %10 = call double @log(double noundef 1.000000e+01) #7
  %11 = load i32, ptr %3, align 4
  %12 = uitofp i32 %11 to double
  %13 = call double @log(double noundef %12) #7
  %14 = call double @log(double noundef 1.000000e+01) #7
  %15 = fdiv double %13, %14
  %16 = call double @llvm.floor.f64(double %15)
  %17 = fadd double 1.000000e+00, %16
  %18 = fmul double %10, %17
  %19 = call double @exp(double noundef %18) #7
  %20 = fdiv double %9, %19
  store double %20, ptr %2, align 8
  br label %21

21:                                               ; preds = %7, %6
  %22 = load double, ptr %2, align 8
  ret double %22
}

; Function Attrs: null_pointer_is_valid sspstrong uwtable
define internal i32 @dissect_mp4_full_box(ptr noundef %0, i32 noundef %1, ptr noundef %2, ptr noundef %3, ptr noundef %4, ptr noundef %5) #0 {
  %7 = alloca ptr, align 8
  %8 = alloca i32, align 4
  %9 = alloca ptr, align 8
  %10 = alloca ptr, align 8
  %11 = alloca ptr, align 8
  %12 = alloca ptr, align 8
  store ptr %0, ptr %7, align 8
  store i32 %1, ptr %8, align 4
  store ptr %2, ptr %9, align 8
  store ptr %3, ptr %10, align 8
  store ptr %4, ptr %11, align 8
  store ptr %5, ptr %12, align 8
  %13 = load ptr, ptr %11, align 8
  %14 = icmp ne ptr %13, null
  br i1 %14, label %15, label %20

15:                                               ; preds = %6
  %16 = load ptr, ptr %7, align 8
  %17 = load i32, ptr %8, align 4
  %18 = call zeroext i8 @tvb_get_uint8(ptr noundef %16, i32 noundef %17)
  %19 = load ptr, ptr %11, align 8
  store i8 %18, ptr %19, align 1
  br label %20

20:                                               ; preds = %15, %6
  %21 = load ptr, ptr %9, align 8
  %22 = load i32, ptr @hf_mp4_full_box_ver, align 4
  %23 = load ptr, ptr %7, align 8
  %24 = load i32, ptr %8, align 4
  %25 = call ptr @proto_tree_add_item(ptr noundef %21, i32 noundef %22, ptr noundef %23, i32 noundef %24, i32 noundef 1, i32 noundef 0)
  %26 = load i32, ptr %8, align 4
  %27 = add i32 %26, 1
  store i32 %27, ptr %8, align 4
  %28 = load ptr, ptr %12, align 8
  %29 = icmp ne ptr %28, null
  br i1 %29, label %30, label %35

30:                                               ; preds = %20
  %31 = load ptr, ptr %7, align 8
  %32 = load i32, ptr %8, align 4
  %33 = call i32 @tvb_get_ntoh24(ptr noundef %31, i32 noundef %32)
  %34 = load ptr, ptr %12, align 8
  store i32 %33, ptr %34, align 4
  br label %35

35:                                               ; preds = %30, %20
  %36 = load ptr, ptr %10, align 8
  %37 = icmp ne ptr %36, null
  br i1 %37, label %38, label %46

38:                                               ; preds = %35
  %39 = load ptr, ptr %9, align 8
  %40 = load ptr, ptr %7, align 8
  %41 = load i32, ptr %8, align 4
  %42 = load i32, ptr @hf_mp4_full_box_flags, align 4
  %43 = load i32, ptr @ett_mp4_full_box_flags, align 4
  %44 = load ptr, ptr %10, align 8
  %45 = call ptr @proto_tree_add_bitmask(ptr noundef %39, ptr noundef %40, i32 noundef %41, i32 noundef %42, i32 noundef %43, ptr noundef %44, i32 noundef 0)
  br label %52

46:                                               ; preds = %35
  %47 = load ptr, ptr %9, align 8
  %48 = load i32, ptr @hf_mp4_full_box_flags, align 4
  %49 = load ptr, ptr %7, align 8
  %50 = load i32, ptr %8, align 4
  %51 = call ptr @proto_tree_add_item(ptr noundef %47, i32 noundef %48, ptr noundef %49, i32 noundef %50, i32 noundef 3, i32 noundef 0)
  br label %52

52:                                               ; preds = %46, %38
  ret i32 4
}

; Function Attrs: null_pointer_is_valid sspstrong uwtable
define internal i32 @dissect_mp4_mvhd_body(ptr noundef %0, i32 noundef %1, i32 noundef %2, ptr noundef %3, i32 noundef %4, ptr noundef %5) #0 {
  %7 = alloca ptr, align 8
  %8 = alloca i32, align 4
  %9 = alloca i32, align 4
  %10 = alloca ptr, align 8
  %11 = alloca i32, align 4
  %12 = alloca ptr, align 8
  %13 = alloca i32, align 4
  %14 = alloca i8, align 1
  %15 = alloca i8, align 1
  %16 = alloca i64, align 8
  %17 = alloca double, align 8
  %18 = alloca double, align 8
  %19 = alloca i16, align 2
  %20 = alloca i32, align 4
  %21 = alloca ptr, align 8
  store ptr %0, ptr %7, align 8
  store i32 %1, ptr %8, align 4
  store i32 %2, ptr %9, align 4
  store ptr %3, ptr %10, align 8
  store i32 %4, ptr %11, align 4
  store ptr %5, ptr %12, align 8
  call void @llvm.lifetime.start.p0(i64 4, ptr %13) #7
  call void @llvm.lifetime.start.p0(i64 1, ptr %14) #7
  call void @llvm.lifetime.start.p0(i64 1, ptr %15) #7
  call void @llvm.lifetime.start.p0(i64 8, ptr %16) #7
  call void @llvm.lifetime.start.p0(i64 8, ptr %17) #7
  call void @llvm.lifetime.start.p0(i64 8, ptr %18) #7
  call void @llvm.lifetime.start.p0(i64 2, ptr %19) #7
  call void @llvm.lifetime.start.p0(i64 4, ptr %20) #7
  call void @llvm.lifetime.start.p0(i64 8, ptr %21) #7
  %22 = load i32, ptr %8, align 4
  store i32 %22, ptr %13, align 4
  %23 = load ptr, ptr %7, align 8
  %24 = load i32, ptr %8, align 4
  %25 = load ptr, ptr %12, align 8
  %26 = call i32 @dissect_mp4_full_box(ptr noundef %23, i32 noundef %24, ptr noundef %25, ptr noundef null, ptr noundef %14, ptr noundef null)
  %27 = load i32, ptr %8, align 4
  %28 = add i32 %27, %26
  store i32 %28, ptr %8, align 4
  %29 = load i8, ptr %14, align 1
  %30 = zext i8 %29 to i32
  %31 = icmp eq i32 %30, 0
  %32 = select i1 %31, i32 4, i32 8
  %33 = trunc i32 %32 to i8
  store i8 %33, ptr %15, align 1
  %34 = load ptr, ptr %12, align 8
  %35 = load i32, ptr @hf_mp4_mvhd_creat_time, align 4
  %36 = load ptr, ptr %7, align 8
  %37 = load i32, ptr %8, align 4
  %38 = load i8, ptr %15, align 1
  %39 = zext i8 %38 to i32
  %40 = call ptr @proto_tree_add_item(ptr noundef %34, i32 noundef %35, ptr noundef %36, i32 noundef %37, i32 noundef %39, i32 noundef 38)
  %41 = load i8, ptr %15, align 1
  %42 = zext i8 %41 to i32
  %43 = load i32, ptr %8, align 4
  %44 = add i32 %43, %42
  store i32 %44, ptr %8, align 4
  %45 = load ptr, ptr %12, align 8
  %46 = load i32, ptr @hf_mp4_mvhd_mod_time, align 4
  %47 = load ptr, ptr %7, align 8
  %48 = load i32, ptr %8, align 4
  %49 = load i8, ptr %15, align 1
  %50 = zext i8 %49 to i32
  %51 = call ptr @proto_tree_add_item(ptr noundef %45, i32 noundef %46, ptr noundef %47, i32 noundef %48, i32 noundef %50, i32 noundef 38)
  %52 = load i8, ptr %15, align 1
  %53 = zext i8 %52 to i32
  %54 = load i32, ptr %8, align 4
  %55 = add i32 %54, %53
  store i32 %55, ptr %8, align 4
  %56 = load ptr, ptr %7, align 8
  %57 = load i32, ptr %8, align 4
  %58 = call i32 @tvb_get_ntohl(ptr noundef %56, i32 noundef %57)
  store i32 %58, ptr @mvhd_timescale, align 4
  %59 = load ptr, ptr %12, align 8
  %60 = load i32, ptr @hf_mp4_mvhd_timescale, align 4
  %61 = load ptr, ptr %7, align 8
  %62 = load i32, ptr %8, align 4
  %63 = load i32, ptr @mvhd_timescale, align 4
  %64 = load i32, ptr @mvhd_timescale, align 4
  %65 = call ptr (ptr, i32, ptr, i32, i32, i32, ptr, ...) @proto_tree_add_uint_format(ptr noundef %59, i32 noundef %60, ptr noundef %61, i32 noundef %62, i32 noundef 4, i32 noundef %63, ptr noundef @.str.167, i32 noundef %64)
  %66 = load i32, ptr %8, align 4
  %67 = add i32 %66, 4
  store i32 %67, ptr %8, align 4
  %68 = load i8, ptr %15, align 1
  %69 = zext i8 %68 to i32
  %70 = icmp eq i32 %69, 4
  br i1 %70, label %71, label %76

71:                                               ; preds = %6
  %72 = load ptr, ptr %7, align 8
  %73 = load i32, ptr %8, align 4
  %74 = call i32 @tvb_get_ntohl(ptr noundef %72, i32 noundef %73)
  %75 = zext i32 %74 to i64
  store i64 %75, ptr %16, align 8
  br label %80

76:                                               ; preds = %6
  %77 = load ptr, ptr %7, align 8
  %78 = load i32, ptr %8, align 4
  %79 = call i64 @tvb_get_ntoh64(ptr noundef %77, i32 noundef %78)
  store i64 %79, ptr %16, align 8
  br label %80

80:                                               ; preds = %76, %71
  %81 = load i32, ptr @mvhd_timescale, align 4
  %82 = icmp eq i32 %81, 0
  br i1 %82, label %83, label %93

83:                                               ; preds = %80
  %84 = load ptr, ptr %12, align 8
  %85 = load i32, ptr @hf_mp4_mvhd_duration, align 4
  %86 = load ptr, ptr %7, align 8
  %87 = load i32, ptr %8, align 4
  %88 = load i8, ptr %15, align 1
  %89 = zext i8 %88 to i32
  %90 = load i64, ptr %16, align 8
  %91 = load i64, ptr %16, align 8
  %92 = call ptr (ptr, i32, ptr, i32, i32, i64, ptr, ...) @proto_tree_add_uint64_format(ptr noundef %84, i32 noundef %85, ptr noundef %86, i32 noundef %87, i32 noundef %89, i64 noundef %90, ptr noundef @.str.168, i64 noundef %91)
  br label %108

93:                                               ; preds = %80
  %94 = load ptr, ptr %12, align 8
  %95 = load i32, ptr @hf_mp4_mvhd_duration, align 4
  %96 = load ptr, ptr %7, align 8
  %97 = load i32, ptr %8, align 4
  %98 = load i8, ptr %15, align 1
  %99 = zext i8 %98 to i32
  %100 = load i64, ptr %16, align 8
  %101 = load i64, ptr %16, align 8
  %102 = uitofp i64 %101 to double
  %103 = load i32, ptr @mvhd_timescale, align 4
  %104 = uitofp i32 %103 to double
  %105 = fdiv double %102, %104
  %106 = load i64, ptr %16, align 8
  %107 = call ptr (ptr, i32, ptr, i32, i32, i64, ptr, ...) @proto_tree_add_uint64_format(ptr noundef %94, i32 noundef %95, ptr noundef %96, i32 noundef %97, i32 noundef %99, i64 noundef %100, ptr noundef @.str.169, double noundef %105, i64 noundef %106)
  br label %108

108:                                              ; preds = %93, %83
  %109 = load i8, ptr %15, align 1
  %110 = zext i8 %109 to i32
  %111 = load i32, ptr %8, align 4
  %112 = add i32 %111, %110
  store i32 %112, ptr %8, align 4
  %113 = load ptr, ptr %7, align 8
  %114 = load i32, ptr %8, align 4
  %115 = call zeroext i16 @tvb_get_ntohs(ptr noundef %113, i32 noundef %114)
  %116 = uitofp i16 %115 to double
  store double %116, ptr %17, align 8
  %117 = load ptr, ptr %7, align 8
  %118 = load i32, ptr %8, align 4
  %119 = add i32 %118, 2
  %120 = call zeroext i16 @tvb_get_ntohs(ptr noundef %117, i32 noundef %119)
  store i16 %120, ptr %19, align 2
  %121 = load i16, ptr %19, align 2
  %122 = zext i16 %121 to i32
  %123 = call double @make_fract(i32 noundef %122)
  %124 = load double, ptr %17, align 8
  %125 = fadd double %124, %123
  store double %125, ptr %17, align 8
  %126 = load ptr, ptr %12, align 8
  %127 = load i32, ptr @hf_mp4_mvhd_rate, align 4
  %128 = load ptr, ptr %7, align 8
  %129 = load i32, ptr %8, align 4
  %130 = load double, ptr %17, align 8
  %131 = call ptr @proto_tree_add_double(ptr noundef %126, i32 noundef %127, ptr noundef %128, i32 noundef %129, i32 noundef 4, double noundef %130)
  %132 = load i32, ptr %8, align 4
  %133 = add i32 %132, 4
  store i32 %133, ptr %8, align 4
  %134 = load ptr, ptr %7, align 8
  %135 = load i32, ptr %8, align 4
  %136 = call zeroext i8 @tvb_get_uint8(ptr noundef %134, i32 noundef %135)
  %137 = uitofp i8 %136 to double
  store double %137, ptr %18, align 8
  %138 = load ptr, ptr %7, align 8
  %139 = load i32, ptr %8, align 4
  %140 = add i32 %139, 1
  %141 = call zeroext i8 @tvb_get_uint8(ptr noundef %138, i32 noundef %140)
  %142 = zext i8 %141 to i16
  store i16 %142, ptr %19, align 2
  %143 = load i16, ptr %19, align 2
  %144 = zext i16 %143 to i32
  %145 = call double @make_fract(i32 noundef %144)
  %146 = load double, ptr %18, align 8
  %147 = fadd double %146, %145
  store double %147, ptr %18, align 8
  %148 = load ptr, ptr %12, align 8
  %149 = load i32, ptr @hf_mp4_mvhd_vol, align 4
  %150 = load ptr, ptr %7, align 8
  %151 = load i32, ptr %8, align 4
  %152 = load double, ptr %18, align 8
  %153 = call ptr @proto_tree_add_double(ptr noundef %148, i32 noundef %149, ptr noundef %150, i32 noundef %151, i32 noundef 4, double noundef %152)
  %154 = load i32, ptr %8, align 4
  %155 = add i32 %154, 2
  store i32 %155, ptr %8, align 4
  %156 = load i32, ptr %8, align 4
  %157 = add i32 %156, 2
  store i32 %157, ptr %8, align 4
  %158 = load i32, ptr %8, align 4
  %159 = add i32 %158, 8
  store i32 %159, ptr %8, align 4
  %160 = load i32, ptr %8, align 4
  %161 = add i32 %160, 36
  store i32 %161, ptr %8, align 4
  %162 = load i32, ptr %8, align 4
  %163 = add i32 %162, 24
  store i32 %163, ptr %8, align 4
  %164 = load ptr, ptr %7, align 8
  %165 = load i32, ptr %8, align 4
  %166 = call i32 @tvb_get_ntohl(ptr noundef %164, i32 noundef %165)
  store i32 %166, ptr %20, align 4
  %167 = load ptr, ptr %12, align 8
  %168 = load i32, ptr @hf_mp4_mvhd_next_tid, align 4
  %169 = load ptr, ptr %7, align 8
  %170 = load i32, ptr %8, align 4
  %171 = call ptr @proto_tree_add_item(ptr noundef %167, i32 noundef %168, ptr noundef %169, i32 noundef %170, i32 noundef 4, i32 noundef 0)
  store ptr %171, ptr %21, align 8
  %172 = load i32, ptr %20, align 4
  %173 = icmp eq i32 %172, -1
  br i1 %173, label %174, label %178

174:                                              ; preds = %108
  %175 = load ptr, ptr %10, align 8
  %176 = load ptr, ptr %21, align 8
  %177 = call ptr @expert_add_info(ptr noundef %175, ptr noundef %176, ptr noundef @ei_mp4_mvhd_next_tid_unknown)
  br label %178

178:                                              ; preds = %174, %108
  %179 = load i32, ptr %8, align 4
  %180 = add i32 %179, 4
  store i32 %180, ptr %8, align 4
  %181 = load i32, ptr %8, align 4
  %182 = load i32, ptr %13, align 4
  %183 = sub i32 %181, %182
  call void @llvm.lifetime.end.p0(i64 8, ptr %21) #7
  call void @llvm.lifetime.end.p0(i64 4, ptr %20) #7
  call void @llvm.lifetime.end.p0(i64 2, ptr %19) #7
  call void @llvm.lifetime.end.p0(i64 8, ptr %18) #7
  call void @llvm.lifetime.end.p0(i64 8, ptr %17) #7
  call void @llvm.lifetime.end.p0(i64 8, ptr %16) #7
  call void @llvm.lifetime.end.p0(i64 1, ptr %15) #7
  call void @llvm.lifetime.end.p0(i64 1, ptr %14) #7
  call void @llvm.lifetime.end.p0(i64 4, ptr %13) #7
  ret i32 %183
}