; Function Attrs: null_pointer_is_valid sspstrong uwtable
define internal fastcc void @dissect_mp4_mvhd_body(ptr noundef %0, i32 noundef %1, ptr noundef %2, ptr noundef %3) unnamed_addr #0 {
  %5 = tail call zeroext i8 @tvb_get_uint8(ptr noundef %0, i32 noundef %1)
  %6 = load i32, ptr @hf_mp4_full_box_ver, align 4
  %7 = tail call ptr @proto_tree_add_item(ptr noundef %3, i32 noundef %6, ptr noundef %0, i32 noundef %1, i32 noundef 1, i32 noundef 0)
  %8 = add i32 %1, 1
  %9 = load i32, ptr @hf_mp4_full_box_flags, align 4
  %10 = tail call ptr @proto_tree_add_item(ptr noundef %3, i32 noundef %9, ptr noundef %0, i32 noundef %8, i32 noundef 3, i32 noundef 0)
  %11 = add i32 %1, 4
  %12 = icmp eq i8 %5, 0
  %13 = select i1 %12, i32 4, i32 8
  %14 = load i32, ptr @hf_mp4_mvhd_creat_time, align 4
  %15 = tail call ptr @proto_tree_add_item(ptr noundef %3, i32 noundef %14, ptr noundef %0, i32 noundef %11, i32 noundef %13, i32 noundef 38)
  %16 = add i32 %13, %11
  %17 = load i32, ptr @hf_mp4_mvhd_mod_time, align 4
  %18 = tail call ptr @proto_tree_add_item(ptr noundef %3, i32 noundef %17, ptr noundef %0, i32 noundef %16, i32 noundef %13, i32 noundef 38)
  %19 = add i32 %16, %13
  %20 = tail call i32 @tvb_get_ntohl(ptr noundef %0, i32 noundef %19)
  store i32 %20, ptr @mvhd_timescale, align 4
  %21 = load i32, ptr @hf_mp4_mvhd_timescale, align 4
  %22 = tail call ptr (ptr, i32, ptr, i32, i32, i32, ptr, ...) @proto_tree_add_uint_format(ptr noundef %3, i32 noundef %21, ptr noundef %0, i32 noundef %19, i32 noundef 4, i32 noundef %20, ptr noundef nonnull @.str.167, i32 noundef %20)
  %23 = add i32 %19, 4
  br i1 %12, label %24, label %27

24:                                               ; preds = %4
  %25 = tail call i32 @tvb_get_ntohl(ptr noundef %0, i32 noundef %23)
  %26 = zext i32 %25 to i64
  br label %29

27:                                               ; preds = %4
  %28 = tail call i64 @tvb_get_ntoh64(ptr noundef %0, i32 noundef %23)
  br label %29

29:                                               ; preds = %27, %24
  %.0 = phi i64 [ %26, %24 ], [ %28, %27 ]
  %30 = load i32, ptr @mvhd_timescale, align 4
  %31 = icmp eq i32 %30, 0
  %32 = load i32, ptr @hf_mp4_mvhd_duration, align 4
  br i1 %31, label %33, label %35

33:                                               ; preds = %29
  %34 = tail call ptr (ptr, i32, ptr, i32, i32, i64, ptr, ...) @proto_tree_add_uint64_format(ptr noundef %3, i32 noundef %32, ptr noundef %0, i32 noundef %23, i32 noundef %13, i64 noundef %.0, ptr noundef nonnull @.str.168, i64 noundef %.0)
  br label %40

35:                                               ; preds = %29
  %36 = uitofp i64 %.0 to double
  %37 = uitofp i32 %30 to double
  %38 = fdiv double %36, %37
  %39 = tail call ptr (ptr, i32, ptr, i32, i32, i64, ptr, ...) @proto_tree_add_uint64_format(ptr noundef %3, i32 noundef %32, ptr noundef %0, i32 noundef %23, i32 noundef %13, i64 noundef %.0, ptr noundef nonnull @.str.169, double noundef %38, i64 noundef %.0)
  br label %40

40:                                               ; preds = %35, %33
  %41 = add i32 %23, %13
  %42 = tail call zeroext i16 @tvb_get_ntohs(ptr noundef %0, i32 noundef %41)
  %43 = uitofp i16 %42 to double
  %44 = add i32 %41, 2
  %45 = tail call zeroext i16 @tvb_get_ntohs(ptr noundef %0, i32 noundef %44)
  %46 = icmp eq i16 %45, 0
  br i1 %46, label %make_fract.exit, label %47

47:                                               ; preds = %40
  %48 = uitofp i16 %45 to double
  %49 = tail call double @log(double noundef %48) #5
  %50 = fdiv double %49, 0x40026BB1BBB55516
  %51 = tail call double @llvm.floor.f64(double %50)
  %52 = fadd double %51, 1.000000e+00
  %53 = fmul double %52, 0x40026BB1BBB55516
  %54 = tail call double @exp(double noundef %53) #5
  %55 = fdiv double %48, %54
  br label %make_fract.exit

make_fract.exit:                                  ; preds = %40, %47
  %.0.i = phi double [ %55, %47 ], [ 0.000000e+00, %40 ]
  %56 = fadd double %.0.i, %43
  %57 = load i32, ptr @hf_mp4_mvhd_rate, align 4
  %58 = tail call ptr @proto_tree_add_double(ptr noundef %3, i32 noundef %57, ptr noundef %0, i32 noundef %41, i32 noundef 4, double noundef %56)
  %59 = add i32 %41, 4
  %60 = tail call zeroext i8 @tvb_get_uint8(ptr noundef %0, i32 noundef %59)
  %61 = uitofp i8 %60 to double
  %62 = add i32 %41, 5
  %63 = tail call zeroext i8 @tvb_get_uint8(ptr noundef %0, i32 noundef %62)
  %64 = icmp eq i8 %63, 0
  br i1 %64, label %make_fract.exit81, label %65

65:                                               ; preds = %make_fract.exit
  %66 = uitofp i8 %63 to double
  %67 = tail call double @log(double noundef %66) #5
  %68 = fdiv double %67, 0x40026BB1BBB55516
  %69 = tail call double @llvm.floor.f64(double %68)
  %70 = fadd double %69, 1.000000e+00
  %71 = fmul double %70, 0x40026BB1BBB55516
  %72 = tail call double @exp(double noundef %71) #5
  %73 = fdiv double %66, %72
  br label %make_fract.exit81

make_fract.exit81:                                ; preds = %make_fract.exit, %65
  %.0.i80 = phi double [ %73, %65 ], [ 0.000000e+00, %make_fract.exit ]
  %74 = fadd double %.0.i80, %61
  %75 = load i32, ptr @hf_mp4_mvhd_vol, align 4
  %76 = tail call ptr @proto_tree_add_double(ptr noundef %3, i32 noundef %75, ptr noundef %0, i32 noundef %59, i32 noundef 4, double noundef %74)
  %77 = add i32 %41, 76
  %78 = tail call i32 @tvb_get_ntohl(ptr noundef %0, i32 noundef %77)
  %79 = load i32, ptr @hf_mp4_mvhd_next_tid, align 4
  %80 = tail call ptr @proto_tree_add_item(ptr noundef %3, i32 noundef %79, ptr noundef %0, i32 noundef %77, i32 noundef 4, i32 noundef 0)
  %81 = icmp eq i32 %78, -1
  br i1 %81, label %82, label %84

82:                                               ; preds = %make_fract.exit81
  %83 = tail call ptr @expert_add_info(ptr noundef %2, ptr noundef %80, ptr noundef nonnull @ei_mp4_mvhd_next_tid_unknown)
  br label %84

84:                                               ; preds = %82, %make_fract.exit81
  ret void
}